; Function Attrs: nounwind uwtable
define zeroext i1 @b2Body_IsSleepEnabled(i64 %0) local_unnamed_addr #0 {
  %.sroa.2.0.extract.shift = lshr i64 %0, 32
  %2 = trunc nuw i64 %.sroa.2.0.extract.shift to i32
  %3 = and i32 %2, 65535
  %4 = tail call ptr @b2GetWorld(i32 noundef %3) #10
  %5 = getelementptr inbounds nuw i8, ptr %4, i64 1032
  %.val.i = load ptr, ptr %5, align 8, !tbaa !10
  %6 = shl i64 %0, 32
  %sext.i = add i64 %6, -4294967296
  %7 = ashr exact i64 %sext.i, 25
  %8 = getelementptr inbounds i8, ptr %.val.i, i64 %7
  %9 = getelementptr inbounds nuw i8, ptr %8, i64 118
  %10 = load i8, ptr %9, align 2, !tbaa !146, !range !75, !noundef !76
  %11 = trunc nuw i8 %10 to i1
  ret i1 %11
}